target datalayout = "e-m:e-p270:32:32-p271:32:32-p272:64:64-i64:64-i128:128-f80:128-n8:16:32:64-S128"
target triple = "x86_64-pc-linux-gnu"

%struct.termiosmodulestate = type { ptr }

; Function Attrs: nounwind uwtable
define internal ptr @termios_tcdrain_impl(ptr noundef %0, i32 noundef %1) #0 {
  %3 = alloca ptr, align 8
  %4 = alloca ptr, align 8
  %5 = alloca i32, align 4
  %6 = alloca ptr, align 8
  %7 = alloca i32, align 4
  %8 = alloca ptr, align 8
  %9 = alloca i32, align 4
  store ptr %0, ptr %4, align 8, !tbaa !3
  store i32 %1, ptr %5, align 4, !tbaa !11
  call void @llvm.lifetime.start.p0(i64 8, ptr %6) #7
  %10 = load ptr, ptr %4, align 8, !tbaa !3
  %11 = call ptr @PyModule_GetState(ptr noundef %10)
  store ptr %11, ptr %6, align 8, !tbaa !8
  call void @llvm.lifetime.start.p0(i64 4, ptr %7) #7
  call void @llvm.lifetime.start.p0(i64 8, ptr %8) #7
  %12 = call ptr @PyEval_SaveThread()
  store ptr %12, ptr %8, align 8, !tbaa !17
  %13 = load i32, ptr %5, align 4, !tbaa !11
  %14 = call i32 @tcdrain(i32 noundef %13)
  store i32 %14, ptr %7, align 4, !tbaa !11
  %15 = load ptr, ptr %8, align 8, !tbaa !17
  call void @PyEval_RestoreThread(ptr noundef %15)
  call void @llvm.lifetime.end.p0(i64 8, ptr %8) #7
  %16 = load i32, ptr %7, align 4, !tbaa !11
  %17 = icmp eq i32 %16, -1
  br i1 %17, label %18, label %23

18:                                               ; preds = %2
  %19 = load ptr, ptr %6, align 8, !tbaa !8
  %20 = getelementptr inbounds nuw %struct.termiosmodulestate, ptr %19, i32 0, i32 0
  %21 = load ptr, ptr %20, align 8, !tbaa !9
  %22 = call ptr @PyErr_SetFromErrno(ptr noundef %21)
  store ptr %22, ptr %3, align 8
  store i32 1, ptr %9, align 4
  br label %25

23:                                               ; preds = %2
  %24 = call ptr @Py_GetConstantBorrowed(i32 noundef 0)
  store ptr %24, ptr %3, align 8
  store i32 1, ptr %9, align 4
  br label %25

25:                                               ; preds = %23, %18
  call void @llvm.lifetime.end.p0(i64 4, ptr %7) #7
  call void @llvm.lifetime.end.p0(i64 8, ptr %6) #7
  %26 = load ptr, ptr %3, align 8
  ret ptr %26
}

; Function Attrs: nounwind uwtable
define internal ptr @termios_tcdrain(ptr noundef %0, ptr noundef %1) #0 {
  %3 = alloca ptr, align 8
  %4 = alloca ptr, align 8
  %5 = alloca ptr, align 8
  %6 = alloca i32, align 4
  store ptr %0, ptr %3, align 8, !tbaa !3
  store ptr %1, ptr %4, align 8, !tbaa !3
  call void @llvm.lifetime.start.p0(i64 8, ptr %5) #7
  store ptr null, ptr %5, align 8, !tbaa !3
  call void @llvm.lifetime.start.p0(i64 4, ptr %6) #7
  %7 = load ptr, ptr %4, align 8, !tbaa !3
  %8 = call i32 @PyObject_AsFileDescriptor(ptr noundef %7)
  store i32 %8, ptr %6, align 4, !tbaa !11
  %9 = load i32, ptr %6, align 4, !tbaa !11
  %10 = icmp slt i32 %9, 0
  br i1 %10, label %11, label %12

11:                                               ; preds = %2
  br label %16

12:                                               ; preds = %2
  %13 = load ptr, ptr %3, align 8, !tbaa !3
  %14 = load i32, ptr %6, align 4, !tbaa !11
  %15 = call ptr @termios_tcdrain_impl(ptr noundef %13, i32 noundef %14)
  store ptr %15, ptr %5, align 8, !tbaa !3
  br label %16

16:                                               ; preds = %12, %11
  %17 = load ptr, ptr %5, align 8, !tbaa !3
  call void @llvm.lifetime.end.p0(i64 4, ptr %6) #7
  call void @llvm.lifetime.end.p0(i64 8, ptr %5) #7
  ret ptr %17
}