; Function Attrs: nounwind uwtable
define internal ptr @termios_tcdrain(ptr noundef %0, ptr noundef %1) #0 {
  %3 = tail call i32 @PyObject_AsFileDescriptor(ptr noundef %1) #5
  %4 = icmp slt i32 %3, 0
  br i1 %4, label %termios_tcdrain_impl.exit, label %5

5:                                                ; preds = %2
  %6 = tail call ptr @PyModule_GetState(ptr noundef %0) #5
  %7 = tail call ptr @PyEval_SaveThread() #5
  %8 = tail call i32 @tcdrain(i32 noundef range(i32 0, -2147483648) %3) #5
  tail call void @PyEval_RestoreThread(ptr noundef %7) #5
  %9 = icmp eq i32 %8, -1
  br i1 %9, label %10, label %13

10:                                               ; preds = %5
  %11 = load ptr, ptr %6, align 8, !tbaa !3
  %12 = tail call ptr @PyErr_SetFromErrno(ptr noundef %11) #5
  br label %termios_tcdrain_impl.exit

13:                                               ; preds = %5
  %14 = tail call ptr @Py_GetConstantBorrowed(i32 noundef 0) #5
  br label %termios_tcdrain_impl.exit

termios_tcdrain_impl.exit:                        ; preds = %13, %10, %2
  %.0 = phi ptr [ null, %2 ], [ %12, %10 ], [ %14, %13 ]
  ret ptr %.0
}